; Function Attrs: nounwind uwtable
define void @Gia_ManCleanTruth(ptr noundef captures(none) %0) local_unnamed_addr #2 {
  %2 = getelementptr inbounds nuw i8, ptr %0, i64 432
  %3 = load ptr, ptr %2, align 8
  %4 = icmp eq ptr %3, null
  %5 = getelementptr i8, ptr %0, i64 24
  %.val5 = load i32, ptr %5, align 8
  br i1 %4, label %6, label %._crit_edge

._crit_edge:                                      ; preds = %1
  %.pre = load i32, ptr %3, align 8
  br label %16

6:                                                ; preds = %1
  %7 = tail call noalias dereferenceable_or_null(16) ptr @malloc(i64 noundef 16) #40
  %8 = add i32 %.val5, -1
  %or.cond.i = icmp ult i32 %8, 15
  %spec.store.select.i = select i1 %or.cond.i, i32 16, i32 %.val5
  %9 = getelementptr inbounds nuw i8, ptr %7, i64 4
  store i32 0, ptr %9, align 4
  store i32 %spec.store.select.i, ptr %7, align 8
  %.not.i = icmp eq i32 %spec.store.select.i, 0
  br i1 %.not.i, label %Vec_IntAlloc.exit, label %10

10:                                               ; preds = %6
  %11 = sext i32 %spec.store.select.i to i64
  %12 = shl nsw i64 %11, 2
  %13 = tail call noalias ptr @malloc(i64 noundef %12) #40
  br label %Vec_IntAlloc.exit

Vec_IntAlloc.exit:                                ; preds = %6, %10
  %14 = phi ptr [ %13, %10 ], [ null, %6 ]
  %15 = getelementptr inbounds nuw i8, ptr %7, i64 8
  store ptr %14, ptr %15, align 8
  store ptr %7, ptr %2, align 8
  br label %16

16:                                               ; preds = %._crit_edge, %Vec_IntAlloc.exit
  %17 = phi i32 [ %spec.store.select.i, %Vec_IntAlloc.exit ], [ %.pre, %._crit_edge ]
  %18 = phi ptr [ %7, %Vec_IntAlloc.exit ], [ %3, %._crit_edge ]
  %.not.i.i = icmp slt i32 %17, %.val5
  br i1 %.not.i.i, label %19, label %Vec_IntGrow.exit.i

19:                                               ; preds = %16
  %20 = getelementptr inbounds nuw i8, ptr %18, i64 8
  %21 = load ptr, ptr %20, align 8
  %.not9.i.i = icmp eq ptr %21, null
  %22 = sext i32 %.val5 to i64
  %23 = shl nsw i64 %22, 2
  br i1 %.not9.i.i, label %26, label %24

24:                                               ; preds = %19
  %25 = tail call ptr @realloc(ptr noundef nonnull %21, i64 noundef %23) #39
  br label %28

26:                                               ; preds = %19
  %27 = tail call noalias ptr @malloc(i64 noundef %23) #40
  br label %28

28:                                               ; preds = %26, %24
  %29 = phi ptr [ %25, %24 ], [ %27, %26 ]
  store ptr %29, ptr %20, align 8
  store i32 %.val5, ptr %18, align 8
  br label %Vec_IntGrow.exit.i

Vec_IntGrow.exit.i:                               ; preds = %28, %16
  %30 = icmp sgt i32 %.val5, 0
  br i1 %30, label %.lr.ph.i, label %Vec_IntFill.exit

.lr.ph.i:                                         ; preds = %Vec_IntGrow.exit.i
  %31 = getelementptr inbounds nuw i8, ptr %18, i64 8
  %wide.trip.count.i = zext nneg i32 %.val5 to i64
  br label %32

32:                                               ; preds = %32, %.lr.ph.i
  %indvars.iv.i = phi i64 [ 0, %.lr.ph.i ], [ %indvars.iv.next.i, %32 ]
  %33 = load ptr, ptr %31, align 8
  %34 = getelementptr inbounds nuw i32, ptr %33, i64 %indvars.iv.i
  store i32 -1, ptr %34, align 4
  %indvars.iv.next.i = add nuw nsw i64 %indvars.iv.i, 1
  %exitcond.not.i = icmp eq i64 %indvars.iv.next.i, %wide.trip.count.i
  br i1 %exitcond.not.i, label %Vec_IntFill.exit, label %32, !llvm.loop !21

Vec_IntFill.exit:                                 ; preds = %32, %Vec_IntGrow.exit.i
  %35 = getelementptr inbounds nuw i8, ptr %18, i64 4
  store i32 %.val5, ptr %35, align 4
  ret void
}